; Function Attrs: mustprogress uwtable
define void @_ZN17grpc_event_engine12experimental22WorkStealingThreadPool26WorkStealingThreadPoolImpl8PostforkEv(ptr noundef nonnull align 8 dereferenceable(632) %this) local_unnamed_addr #3 align 2 {
entry:
  %forking_.i = getelementptr inbounds i8, ptr %this, i64 225
  %0 = atomicrmw xchg ptr %forking_.i, i8 0 seq_cst, align 1
  %1 = and i8 %0, 1
  %tobool3.i.i.i.not = icmp eq i8 %1, 0
  br i1 %tobool3.i.i.i.not, label %if.then.i, label %_ZN17grpc_event_engine12experimental22WorkStealingThreadPool26WorkStealingThreadPoolImpl10SetForkingEb.exit

if.then.i:                                        ; preds = %entry
  tail call void @gpr_assertion_failed(ptr noundef nonnull @.str, i32 noundef 246, ptr noundef nonnull @.str.7) #25
  unreachable

_ZN17grpc_event_engine12experimental22WorkStealingThreadPool26WorkStealingThreadPoolImpl10SetForkingEb.exit: ; preds = %entry
  %reserve_threads_.i = getelementptr inbounds i8, ptr %this, i64 16
  %2 = load i64, ptr %reserve_threads_.i, align 8
  %cmp2.not.i = icmp eq i64 %2, 0
  br i1 %cmp2.not.i, label %_ZN17grpc_event_engine12experimental22WorkStealingThreadPool26WorkStealingThreadPoolImpl5StartEv.exit, label %for.body.i

for.body.i:                                       ; preds = %_ZN17grpc_event_engine12experimental22WorkStealingThreadPool26WorkStealingThreadPoolImpl10SetForkingEb.exit, %for.body.i
  %i.03.i = phi i64 [ %inc.i, %for.body.i ], [ 0, %_ZN17grpc_event_engine12experimental22WorkStealingThreadPool26WorkStealingThreadPoolImpl10SetForkingEb.exit ]
  tail call void @_ZN17grpc_event_engine12experimental22WorkStealingThreadPool26WorkStealingThreadPoolImpl11StartThreadEv(ptr noundef nonnull align 8 dereferenceable(632) %this)
  %inc.i = add nuw i64 %i.03.i, 1
  %3 = load i64, ptr %reserve_threads_.i, align 8
  %cmp.i = icmp ult i64 %inc.i, %3
  br i1 %cmp.i, label %for.body.i, label %_ZN17grpc_event_engine12experimental22WorkStealingThreadPool26WorkStealingThreadPoolImpl5StartEv.exit, !llvm.loop !7

_ZN17grpc_event_engine12experimental22WorkStealingThreadPool26WorkStealingThreadPoolImpl5StartEv.exit: ; preds = %for.body.i, %_ZN17grpc_event_engine12experimental22WorkStealingThreadPool26WorkStealingThreadPoolImpl10SetForkingEb.exit
  %lifeguard_.i = getelementptr inbounds i8, ptr %this, i64 264
  tail call void @_ZN17grpc_event_engine12experimental22WorkStealingThreadPool26WorkStealingThreadPoolImpl9Lifeguard5StartEv(ptr noundef nonnull align 8 dereferenceable(361) %lifeguard_.i)
  ret void
}